; Function Attrs: mustprogress nofree norecurse nosync nounwind willreturn memory(none) uwtable
define ptr @av_csp_primaries_desc_from_id(i32 noundef %0) local_unnamed_addr #0 {
  %2 = icmp ugt i32 %0, 22
  br i1 %2, label %8, label %3

3:                                                ; preds = %1
  %4 = zext nneg i32 %0 to i64
  %5 = getelementptr inbounds nuw [23 x %struct.AVColorPrimariesDesc], ptr @color_primaries, i64 0, i64 %4
  %6 = getelementptr inbounds nuw i8, ptr %5, i64 16
  %7 = load i32, ptr %6, align 16, !tbaa !10
  %.not = icmp eq i32 %7, 0
  %. = select i1 %.not, ptr null, ptr %5
  br label %8

8:                                                ; preds = %3, %1
  %.0 = phi ptr [ null, %1 ], [ %., %3 ]
  ret ptr %.0
}